target datalayout = "e-m:e-p270:32:32-p271:32:32-p272:64:64-i64:64-i128:128-f80:128-n8:16:32:64-S128"
target triple = "x86_64-pc-linux-gnu"

%struct.IndexScanState = type { %struct.ScanState, ptr, ptr, ptr, i32, ptr, i32, ptr, i32, i8, ptr, ptr, ptr, ptr, i8, ptr, ptr, ptr, ptr, ptr, i64 }
%struct.ScanState = type { %struct.PlanState, ptr, ptr, ptr }
%struct.PlanState = type { i32, ptr, ptr, ptr, ptr, ptr, ptr, ptr, ptr, ptr, ptr, ptr, ptr, ptr, ptr, ptr, ptr, ptr, i8, ptr, ptr, ptr, ptr, ptr, i8, i8, i8, i8, i8, i8, i8, i8 }
%struct.ExprContext = type { i32, ptr, ptr, ptr, ptr, ptr, ptr, ptr, ptr, ptr, i64, i8, i64, i8, ptr, ptr, ptr, ptr }
%struct.ExprState = type { i32, i8, i8, i64, ptr, ptr, ptr, ptr, ptr, i32, i32, ptr, ptr, ptr, ptr, ptr, ptr, ptr }
%struct.EState = type { i32, i32, ptr, ptr, ptr, i32, ptr, ptr, ptr, ptr, ptr, ptr, ptr, ptr, ptr, ptr, i32, ptr, ptr, ptr, ptr, ptr, ptr, ptr, ptr, ptr, ptr, i64, i64, i32, i32, i8, ptr, ptr, ptr, ptr, ptr, i8, i32, i32, ptr, i32, ptr, ptr, ptr, ptr }
%struct.Scan = type { %struct.Plan, i32 }
%struct.Plan = type { i32, i32, double, double, double, i32, i8, i8, i8, i32, ptr, ptr, ptr, ptr, ptr, ptr, ptr }
%struct.IndexScan = type { %struct.Scan, i32, ptr, ptr, ptr, ptr, ptr, i32 }
%struct.IndexScanDescData = type { ptr, ptr, ptr, i32, i32, ptr, ptr, i8, i8, i8, i8, i8, ptr, ptr, ptr, ptr, ptr, %struct.ItemPointerData, i8, ptr, i8, ptr, ptr, i8, ptr }
%struct.ItemPointerData = type { %struct.BlockIdData, i16 }
%struct.BlockIdData = type { i16, i16 }
%struct.Instrumentation = type { i8, i8, i8, i8, i8, %struct.instr_time, %struct.instr_time, double, double, %struct.BufferUsage, %struct.WalUsage, double, double, double, double, double, double, double, %struct.BufferUsage, %struct.WalUsage }
%struct.instr_time = type { i64 }
%struct.BufferUsage = type { i64, i64, i64, i64, i64, i64, i64, i64, i64, i64, %struct.instr_time, %struct.instr_time, %struct.instr_time, %struct.instr_time, %struct.instr_time, %struct.instr_time }
%struct.WalUsage = type { i64, i64, i64, i64 }
%struct.TupleTableSlot = type { i32, i16, i16, ptr, ptr, ptr, ptr, ptr, %struct.ItemPointerData, i32 }
%struct.TupleTableSlotOps = type { i64, ptr, ptr, ptr, ptr, ptr, ptr, ptr, ptr, ptr, ptr, ptr, ptr }

@CurrentMemoryContext = external global ptr, align 8
@InterruptPending = external global i32, align 4

; Function Attrs: inlinehint nounwind uwtable
define internal ptr @MemoryContextSwitchTo(ptr noundef %0) #3 {
  %2 = alloca ptr, align 8
  %3 = alloca ptr, align 8
  store ptr %0, ptr %2, align 8
  call void @llvm.lifetime.start.p0(i64 8, ptr %3) #7
  %4 = load ptr, ptr @CurrentMemoryContext, align 8
  store ptr %4, ptr %3, align 8
  %5 = load ptr, ptr %2, align 8
  store ptr %5, ptr @CurrentMemoryContext, align 8
  %6 = load ptr, ptr %3, align 8
  call void @llvm.lifetime.end.p0(i64 8, ptr %3) #7
  ret ptr %6
}

; Function Attrs: inlinehint nounwind uwtable
define internal zeroext i1 @DatumGetBool(i64 noundef %0) #3 {
  %2 = alloca i64, align 8
  store i64 %0, ptr %2, align 8
  %3 = load i64, ptr %2, align 8
  %4 = icmp ne i64 %3, 0
  ret i1 %4
}

; Function Attrs: inlinehint nounwind uwtable
define internal i64 @ExecEvalExprSwitchContext(ptr noundef %0, ptr noundef %1, ptr noundef %2) #3 {
  %4 = alloca ptr, align 8
  %5 = alloca ptr, align 8
  %6 = alloca ptr, align 8
  %7 = alloca i64, align 8
  %8 = alloca ptr, align 8
  store ptr %0, ptr %4, align 8
  store ptr %1, ptr %5, align 8
  store ptr %2, ptr %6, align 8
  call void @llvm.lifetime.start.p0(i64 8, ptr %7) #7
  call void @llvm.lifetime.start.p0(i64 8, ptr %8) #7
  %9 = load ptr, ptr %5, align 8
  %10 = getelementptr inbounds nuw %struct.ExprContext, ptr %9, i32 0, i32 5
  %11 = load ptr, ptr %10, align 8
  %12 = call ptr @MemoryContextSwitchTo(ptr noundef %11)
  store ptr %12, ptr %8, align 8
  %13 = load ptr, ptr %4, align 8
  %14 = getelementptr inbounds nuw %struct.ExprState, ptr %13, i32 0, i32 6
  %15 = load ptr, ptr %14, align 8
  %16 = load ptr, ptr %4, align 8
  %17 = load ptr, ptr %5, align 8
  %18 = load ptr, ptr %6, align 8
  %19 = call i64 %15(ptr noundef %16, ptr noundef %17, ptr noundef %18)
  store i64 %19, ptr %7, align 8
  %20 = load ptr, ptr %8, align 8
  %21 = call ptr @MemoryContextSwitchTo(ptr noundef %20)
  %22 = load i64, ptr %7, align 8
  call void @llvm.lifetime.end.p0(i64 8, ptr %8) #7
  call void @llvm.lifetime.end.p0(i64 8, ptr %7) #7
  ret i64 %22
}

; Function Attrs: inlinehint nounwind uwtable
define internal zeroext i1 @ExecQual(ptr noundef %0, ptr noundef %1) #3 {
  %3 = alloca i1, align 1
  %4 = alloca ptr, align 8
  %5 = alloca ptr, align 8
  %6 = alloca i64, align 8
  %7 = alloca i8, align 1
  %8 = alloca i32, align 4
  store ptr %0, ptr %4, align 8
  store ptr %1, ptr %5, align 8
  call void @llvm.lifetime.start.p0(i64 8, ptr %6) #7
  call void @llvm.lifetime.start.p0(i64 1, ptr %7) #7
  %9 = load ptr, ptr %4, align 8
  %10 = icmp eq ptr %9, null
  br i1 %10, label %11, label %12

11:                                               ; preds = %2
  store i1 true, ptr %3, align 1
  store i32 1, ptr %8, align 4
  br label %18

12:                                               ; preds = %2
  %13 = load ptr, ptr %4, align 8
  %14 = load ptr, ptr %5, align 8
  %15 = call i64 @ExecEvalExprSwitchContext(ptr noundef %13, ptr noundef %14, ptr noundef %7)
  store i64 %15, ptr %6, align 8
  %16 = load i64, ptr %6, align 8
  %17 = call zeroext i1 @DatumGetBool(i64 noundef %16)
  store i1 %17, ptr %3, align 1
  store i32 1, ptr %8, align 4
  br label %18

18:                                               ; preds = %12, %11
  call void @llvm.lifetime.end.p0(i64 1, ptr %7) #7
  call void @llvm.lifetime.end.p0(i64 8, ptr %6) #7
  %19 = load i1, ptr %3, align 1
  ret i1 %19
}

; Function Attrs: inlinehint nounwind uwtable
define internal ptr @ExecClearTuple(ptr noundef %0) #3 {
  %2 = alloca ptr, align 8
  store ptr %0, ptr %2, align 8
  %3 = load ptr, ptr %2, align 8
  %4 = getelementptr inbounds nuw %struct.TupleTableSlot, ptr %3, i32 0, i32 3
  %5 = load ptr, ptr %4, align 8
  %6 = getelementptr inbounds nuw %struct.TupleTableSlotOps, ptr %5, i32 0, i32 3
  %7 = load ptr, ptr %6, align 8
  %8 = load ptr, ptr %2, align 8
  call void %7(ptr noundef %8)
  %9 = load ptr, ptr %2, align 8
  ret ptr %9
}

; Function Attrs: inlinehint nounwind uwtable
define internal zeroext i1 @ExecQualAndReset(ptr noundef %0, ptr noundef %1) #3 {
  %3 = alloca ptr, align 8
  %4 = alloca ptr, align 8
  %5 = alloca i8, align 1
  store ptr %0, ptr %3, align 8
  store ptr %1, ptr %4, align 8
  call void @llvm.lifetime.start.p0(i64 1, ptr %5) #7
  %6 = load ptr, ptr %3, align 8
  %7 = load ptr, ptr %4, align 8
  %8 = call zeroext i1 @ExecQual(ptr noundef %6, ptr noundef %7)
  %9 = zext i1 %8 to i8
  store i8 %9, ptr %5, align 1
  %10 = load ptr, ptr %4, align 8
  %11 = getelementptr inbounds nuw %struct.ExprContext, ptr %10, i32 0, i32 5
  %12 = load ptr, ptr %11, align 8
  call void @MemoryContextReset(ptr noundef %12)
  %13 = load i8, ptr %5, align 1, !range !6, !noundef !7
  %14 = trunc i8 %13 to i1
  call void @llvm.lifetime.end.p0(i64 1, ptr %5) #7
  ret i1 %14
}

; Function Attrs: nounwind uwtable
define internal ptr @IndexNext(ptr noundef %0) #0 {
  %2 = alloca ptr, align 8
  %3 = alloca ptr, align 8
  %4 = alloca ptr, align 8
  %5 = alloca ptr, align 8
  %6 = alloca i32, align 4
  %7 = alloca ptr, align 8
  %8 = alloca ptr, align 8
  %9 = alloca i32, align 4
  store ptr %0, ptr %3, align 8
  call void @llvm.lifetime.start.p0(i64 8, ptr %4) #7
  call void @llvm.lifetime.start.p0(i64 8, ptr %5) #7
  call void @llvm.lifetime.start.p0(i64 4, ptr %6) #7
  call void @llvm.lifetime.start.p0(i64 8, ptr %7) #7
  call void @llvm.lifetime.start.p0(i64 8, ptr %8) #7
  %10 = load ptr, ptr %3, align 8
  %11 = getelementptr inbounds nuw %struct.IndexScanState, ptr %10, i32 0, i32 0
  %12 = getelementptr inbounds nuw %struct.ScanState, ptr %11, i32 0, i32 0
  %13 = getelementptr inbounds nuw %struct.PlanState, ptr %12, i32 0, i32 2
  %14 = load ptr, ptr %13, align 8
  store ptr %14, ptr %4, align 8
  %15 = load ptr, ptr %4, align 8
  %16 = getelementptr inbounds nuw %struct.EState, ptr %15, i32 0, i32 1
  %17 = load i32, ptr %16, align 4
  %18 = load ptr, ptr %3, align 8
  %19 = getelementptr inbounds nuw %struct.IndexScanState, ptr %18, i32 0, i32 0
  %20 = getelementptr inbounds nuw %struct.ScanState, ptr %19, i32 0, i32 0
  %21 = getelementptr inbounds nuw %struct.PlanState, ptr %20, i32 0, i32 1
  %22 = load ptr, ptr %21, align 8
  %23 = getelementptr inbounds nuw %struct.IndexScan, ptr %22, i32 0, i32 7
  %24 = load i32, ptr %23, align 8
  %25 = mul i32 %17, %24
  store i32 %25, ptr %6, align 4
  %26 = load ptr, ptr %3, align 8
  %27 = getelementptr inbounds nuw %struct.IndexScanState, ptr %26, i32 0, i32 12
  %28 = load ptr, ptr %27, align 8
  store ptr %28, ptr %7, align 8
  %29 = load ptr, ptr %3, align 8
  %30 = getelementptr inbounds nuw %struct.IndexScanState, ptr %29, i32 0, i32 0
  %31 = getelementptr inbounds nuw %struct.ScanState, ptr %30, i32 0, i32 0
  %32 = getelementptr inbounds nuw %struct.PlanState, ptr %31, i32 0, i32 16
  %33 = load ptr, ptr %32, align 8
  store ptr %33, ptr %5, align 8
  %34 = load ptr, ptr %3, align 8
  %35 = getelementptr inbounds nuw %struct.IndexScanState, ptr %34, i32 0, i32 0
  %36 = getelementptr inbounds nuw %struct.ScanState, ptr %35, i32 0, i32 3
  %37 = load ptr, ptr %36, align 8
  store ptr %37, ptr %8, align 8
  %38 = load ptr, ptr %7, align 8
  %39 = icmp eq ptr %38, null
  br i1 %39, label %40, label %85

40:                                               ; preds = %1
  %41 = load ptr, ptr %3, align 8
  %42 = getelementptr inbounds nuw %struct.IndexScanState, ptr %41, i32 0, i32 0
  %43 = getelementptr inbounds nuw %struct.ScanState, ptr %42, i32 0, i32 1
  %44 = load ptr, ptr %43, align 8
  %45 = load ptr, ptr %3, align 8
  %46 = getelementptr inbounds nuw %struct.IndexScanState, ptr %45, i32 0, i32 11
  %47 = load ptr, ptr %46, align 8
  %48 = load ptr, ptr %4, align 8
  %49 = getelementptr inbounds nuw %struct.EState, ptr %48, i32 0, i32 2
  %50 = load ptr, ptr %49, align 8
  %51 = load ptr, ptr %3, align 8
  %52 = getelementptr inbounds nuw %struct.IndexScanState, ptr %51, i32 0, i32 4
  %53 = load i32, ptr %52, align 8
  %54 = load ptr, ptr %3, align 8
  %55 = getelementptr inbounds nuw %struct.IndexScanState, ptr %54, i32 0, i32 6
  %56 = load i32, ptr %55, align 8
  %57 = call ptr @index_beginscan(ptr noundef %44, ptr noundef %47, ptr noundef %50, i32 noundef %53, i32 noundef %56)
  store ptr %57, ptr %7, align 8
  %58 = load ptr, ptr %7, align 8
  %59 = load ptr, ptr %3, align 8
  %60 = getelementptr inbounds nuw %struct.IndexScanState, ptr %59, i32 0, i32 12
  store ptr %58, ptr %60, align 8
  %61 = load ptr, ptr %3, align 8
  %62 = getelementptr inbounds nuw %struct.IndexScanState, ptr %61, i32 0, i32 8
  %63 = load i32, ptr %62, align 8
  %64 = icmp eq i32 %63, 0
  br i1 %64, label %70, label %65

65:                                               ; preds = %40
  %66 = load ptr, ptr %3, align 8
  %67 = getelementptr inbounds nuw %struct.IndexScanState, ptr %66, i32 0, i32 9
  %68 = load i8, ptr %67, align 4, !range !6, !noundef !7
  %69 = trunc i8 %68 to i1
  br i1 %69, label %70, label %84

70:                                               ; preds = %65, %40
  %71 = load ptr, ptr %7, align 8
  %72 = load ptr, ptr %3, align 8
  %73 = getelementptr inbounds nuw %struct.IndexScanState, ptr %72, i32 0, i32 3
  %74 = load ptr, ptr %73, align 8
  %75 = load ptr, ptr %3, align 8
  %76 = getelementptr inbounds nuw %struct.IndexScanState, ptr %75, i32 0, i32 4
  %77 = load i32, ptr %76, align 8
  %78 = load ptr, ptr %3, align 8
  %79 = getelementptr inbounds nuw %struct.IndexScanState, ptr %78, i32 0, i32 5
  %80 = load ptr, ptr %79, align 8
  %81 = load ptr, ptr %3, align 8
  %82 = getelementptr inbounds nuw %struct.IndexScanState, ptr %81, i32 0, i32 6
  %83 = load i32, ptr %82, align 8
  call void @index_rescan(ptr noundef %71, ptr noundef %74, i32 noundef %77, ptr noundef %80, i32 noundef %83)
  br label %84

84:                                               ; preds = %70, %65
  br label %85

85:                                               ; preds = %84, %1
  br label %86

86:                                               ; preds = %131, %85
  %87 = load ptr, ptr %7, align 8
  %88 = load i32, ptr %6, align 4
  %89 = load ptr, ptr %8, align 8
  %90 = call zeroext i1 @index_getnext_slot(ptr noundef %87, i32 noundef %88, ptr noundef %89)
  br i1 %90, label %91, label %135

91:                                               ; preds = %86
  br label %92

92:                                               ; preds = %91
  %93 = load volatile i32, ptr @InterruptPending, align 4
  %94 = icmp ne i32 %93, 0
  %95 = zext i1 %94 to i32
  %96 = sext i32 %95 to i64
  %97 = call i64 @llvm.expect.i64(i64 %96, i64 0)
  %98 = icmp ne i64 %97, 0
  br i1 %98, label %99, label %100

99:                                               ; preds = %92
  call void @ProcessInterrupts()
  br label %100

100:                                              ; preds = %99, %92
  br label %101

101:                                              ; preds = %100
  br label %102

102:                                              ; preds = %101
  %103 = load ptr, ptr %7, align 8
  %104 = getelementptr inbounds nuw %struct.IndexScanDescData, ptr %103, i32 0, i32 20
  %105 = load i8, ptr %104, align 8, !range !6, !noundef !7
  %106 = trunc i8 %105 to i1
  br i1 %106, label %107, label %133

107:                                              ; preds = %102
  %108 = load ptr, ptr %8, align 8
  %109 = load ptr, ptr %5, align 8
  %110 = getelementptr inbounds nuw %struct.ExprContext, ptr %109, i32 0, i32 1
  store ptr %108, ptr %110, align 8
  %111 = load ptr, ptr %3, align 8
  %112 = getelementptr inbounds nuw %struct.IndexScanState, ptr %111, i32 0, i32 1
  %113 = load ptr, ptr %112, align 8
  %114 = load ptr, ptr %5, align 8
  %115 = call zeroext i1 @ExecQualAndReset(ptr noundef %113, ptr noundef %114)
  br i1 %115, label %132, label %116

116:                                              ; preds = %107
  br label %117

117:                                              ; preds = %116
  %118 = load ptr, ptr %3, align 8
  %119 = getelementptr inbounds nuw %struct.PlanState, ptr %118, i32 0, i32 5
  %120 = load ptr, ptr %119, align 8
  %121 = icmp ne ptr %120, null
  br i1 %121, label %122, label %129

122:                                              ; preds = %117
  %123 = load ptr, ptr %3, align 8
  %124 = getelementptr inbounds nuw %struct.PlanState, ptr %123, i32 0, i32 5
  %125 = load ptr, ptr %124, align 8
  %126 = getelementptr inbounds nuw %struct.Instrumentation, ptr %125, i32 0, i32 17
  %127 = load double, ptr %126, align 8
  %128 = fadd double %127, 1.000000e+00
  store double %128, ptr %126, align 8
  br label %129

129:                                              ; preds = %122, %117
  br label %130

130:                                              ; preds = %129
  br label %131

131:                                              ; preds = %130
  br label %86, !llvm.loop !16

132:                                              ; preds = %107
  br label %133

133:                                              ; preds = %132, %102
  %134 = load ptr, ptr %8, align 8
  store ptr %134, ptr %2, align 8
  store i32 1, ptr %9, align 4
  br label %140

135:                                              ; preds = %86
  %136 = load ptr, ptr %3, align 8
  %137 = getelementptr inbounds nuw %struct.IndexScanState, ptr %136, i32 0, i32 14
  store i8 1, ptr %137, align 8
  %138 = load ptr, ptr %8, align 8
  %139 = call ptr @ExecClearTuple(ptr noundef %138)
  store ptr %139, ptr %2, align 8
  store i32 1, ptr %9, align 4
  br label %140

140:                                              ; preds = %135, %133
  call void @llvm.lifetime.end.p0(i64 8, ptr %8) #7
  call void @llvm.lifetime.end.p0(i64 8, ptr %7) #7
  call void @llvm.lifetime.end.p0(i64 4, ptr %6) #7
  call void @llvm.lifetime.end.p0(i64 8, ptr %5) #7
  call void @llvm.lifetime.end.p0(i64 8, ptr %4) #7
  %141 = load ptr, ptr %2, align 8
  ret ptr %141
}