; Function Attrs: nounwind uwtable
define internal ptr @IndexNext(ptr noundef captures(none) %0) #0 {
  %2 = alloca i8, align 1
  %3 = getelementptr inbounds nuw i8, ptr %0, i64 16
  %4 = load ptr, ptr %3, align 8
  %5 = getelementptr inbounds nuw i8, ptr %4, i64 4
  %6 = load i32, ptr %5, align 4
  %7 = getelementptr inbounds nuw i8, ptr %0, i64 8
  %8 = load ptr, ptr %7, align 8
  %9 = getelementptr inbounds nuw i8, ptr %8, i64 160
  %10 = load i32, ptr %9, align 8
  %11 = mul i32 %10, %6
  %12 = getelementptr inbounds nuw i8, ptr %0, i64 304
  %13 = load ptr, ptr %12, align 8
  %14 = getelementptr inbounds nuw i8, ptr %0, i64 128
  %15 = load ptr, ptr %14, align 8
  %16 = getelementptr inbounds nuw i8, ptr %0, i64 216
  %17 = load ptr, ptr %16, align 8
  %18 = icmp eq ptr %13, null
  br i1 %18, label %19, label %45

19:                                               ; preds = %1
  %20 = getelementptr inbounds nuw i8, ptr %0, i64 200
  %21 = load ptr, ptr %20, align 8
  %22 = getelementptr inbounds nuw i8, ptr %0, i64 296
  %23 = load ptr, ptr %22, align 8
  %24 = getelementptr inbounds nuw i8, ptr %4, i64 8
  %25 = load ptr, ptr %24, align 8
  %26 = getelementptr inbounds nuw i8, ptr %0, i64 248
  %27 = load i32, ptr %26, align 8
  %28 = getelementptr inbounds nuw i8, ptr %0, i64 264
  %29 = load i32, ptr %28, align 8
  %30 = tail call ptr @index_beginscan(ptr noundef %21, ptr noundef %23, ptr noundef %25, i32 noundef %27, i32 noundef %29) #7
  store ptr %30, ptr %12, align 8
  %31 = getelementptr inbounds nuw i8, ptr %0, i64 280
  %32 = load i32, ptr %31, align 8
  %33 = icmp eq i32 %32, 0
  br i1 %33, label %38, label %34

34:                                               ; preds = %19
  %35 = getelementptr inbounds nuw i8, ptr %0, i64 284
  %36 = load i8, ptr %35, align 4, !range !4, !noundef !5
  %37 = trunc nuw i8 %36 to i1
  br i1 %37, label %38, label %45

38:                                               ; preds = %34, %19
  %39 = getelementptr inbounds nuw i8, ptr %0, i64 240
  %40 = load ptr, ptr %39, align 8
  %41 = load i32, ptr %26, align 8
  %42 = getelementptr inbounds nuw i8, ptr %0, i64 256
  %43 = load ptr, ptr %42, align 8
  %44 = load i32, ptr %28, align 8
  tail call void @index_rescan(ptr noundef %30, ptr noundef %40, i32 noundef %41, ptr noundef %43, i32 noundef %44) #7
  br label %45

45:                                               ; preds = %34, %38, %1
  %.034 = phi ptr [ %30, %38 ], [ %30, %34 ], [ %13, %1 ]
  %46 = tail call zeroext i1 @index_getnext_slot(ptr noundef %.034, i32 noundef %11, ptr noundef %17) #7
  br i1 %46, label %.lr.ph, label %._crit_edge

.lr.ph:                                           ; preds = %45
  %47 = getelementptr inbounds nuw i8, ptr %.034, i64 112
  %48 = getelementptr inbounds nuw i8, ptr %15, i64 8
  %49 = getelementptr inbounds nuw i8, ptr %0, i64 224
  %50 = getelementptr inbounds nuw i8, ptr %15, i64 40
  %51 = getelementptr inbounds nuw i8, ptr %0, i64 40
  br label %52

52:                                               ; preds = %.lr.ph, %74
  %53 = load volatile i32, ptr @InterruptPending, align 4
  %.not = icmp eq i32 %53, 0
  br i1 %.not, label %55, label %54, !prof !14

54:                                               ; preds = %52
  call void @ProcessInterrupts() #7
  br label %55

55:                                               ; preds = %54, %52
  %56 = load i8, ptr %47, align 8, !range !4, !noundef !5
  %57 = trunc nuw i8 %56 to i1
  br i1 %57, label %58, label %.loopexit

58:                                               ; preds = %55
  store ptr %17, ptr %48, align 8
  %59 = load ptr, ptr %49, align 8
  call void @llvm.lifetime.start.p0(i64 1, ptr nonnull %2) #7
  %60 = icmp eq ptr %59, null
  br i1 %60, label %ExecQualAndReset.exit.thread, label %ExecQualAndReset.exit

ExecQualAndReset.exit.thread:                     ; preds = %58
  call void @llvm.lifetime.end.p0(i64 1, ptr nonnull %2) #7
  %61 = load ptr, ptr %50, align 8
  call void @MemoryContextReset(ptr noundef %61) #7
  br label %.loopexit

ExecQualAndReset.exit:                            ; preds = %58
  %62 = load ptr, ptr %50, align 8
  %63 = load ptr, ptr @CurrentMemoryContext, align 8
  store ptr %62, ptr @CurrentMemoryContext, align 8
  %64 = getelementptr inbounds nuw i8, ptr %59, i64 32
  %65 = load ptr, ptr %64, align 8
  %66 = call i64 %65(ptr noundef nonnull %59, ptr noundef nonnull %15, ptr noundef nonnull %2) #7
  store ptr %63, ptr @CurrentMemoryContext, align 8
  %.not39 = icmp eq i64 %66, 0
  call void @llvm.lifetime.end.p0(i64 1, ptr nonnull %2) #7
  %67 = load ptr, ptr %50, align 8
  call void @MemoryContextReset(ptr noundef %67) #7
  br i1 %.not39, label %68, label %.loopexit

68:                                               ; preds = %ExecQualAndReset.exit
  %69 = load ptr, ptr %51, align 8
  %.not37 = icmp eq ptr %69, null
  br i1 %.not37, label %74, label %70

70:                                               ; preds = %68
  %71 = getelementptr inbounds nuw i8, ptr %69, i64 248
  %72 = load double, ptr %71, align 8
  %73 = fadd double %72, 1.000000e+00
  store double %73, ptr %71, align 8
  br label %74

74:                                               ; preds = %70, %68
  %75 = call zeroext i1 @index_getnext_slot(ptr noundef nonnull %.034, i32 noundef %11, ptr noundef %17) #7
  br i1 %75, label %52, label %._crit_edge, !llvm.loop !16

._crit_edge:                                      ; preds = %74, %45
  %76 = getelementptr inbounds nuw i8, ptr %0, i64 320
  store i8 1, ptr %76, align 8
  %77 = getelementptr inbounds nuw i8, ptr %17, i64 8
  %78 = load ptr, ptr %77, align 8
  %79 = getelementptr inbounds nuw i8, ptr %78, i64 24
  %80 = load ptr, ptr %79, align 8
  call void %80(ptr noundef %17) #7
  br label %.loopexit

.loopexit:                                        ; preds = %55, %ExecQualAndReset.exit, %ExecQualAndReset.exit.thread, %._crit_edge
  ret ptr %17
}